; Function Attrs: mustprogress uwtable
define void @_ZN6colvar3cvc18calc_fit_gradientsEv(ptr nocapture noundef nonnull readonly align 8 dereferenceable(1648) %0) local_unnamed_addr #1 align 2 {
  %2 = getelementptr inbounds i8, ptr %0, i64 576
  %3 = getelementptr inbounds i8, ptr %0, i64 584
  %4 = load ptr, ptr %3, align 8
  %5 = load ptr, ptr %2, align 8
  %.not = icmp eq ptr %4, %5
  br i1 %.not, label %._crit_edge, label %.lr.ph

.lr.ph:                                           ; preds = %1, %.lr.ph
  %6 = phi ptr [ %11, %.lr.ph ], [ %5, %1 ]
  %.03 = phi i64 [ %9, %.lr.ph ], [ 0, %1 ]
  %7 = getelementptr inbounds ptr, ptr %6, i64 %.03
  %8 = load ptr, ptr %7, align 8
  tail call void @_ZN12colvarmodule10atom_group18calc_fit_gradientsEv(ptr noundef nonnull align 8 dereferenceable(1440) %8)
  %9 = add nuw i64 %.03, 1
  %10 = load ptr, ptr %3, align 8
  %11 = load ptr, ptr %2, align 8
  %12 = ptrtoint ptr %10 to i64
  %13 = ptrtoint ptr %11 to i64
  %14 = sub i64 %12, %13
  %15 = ashr exact i64 %14, 3
  %16 = icmp ult i64 %9, %15
  br i1 %16, label %.lr.ph, label %._crit_edge, !llvm.loop !118

._crit_edge:                                      ; preds = %.lr.ph, %1
  ret void
}